; Function Attrs: mustprogress uwtable
define hidden noundef zeroext i1 @_ZN2cv8tinyxml210XMLPrinter10VisitEnterERKNS0_11XMLDocumentE(ptr noundef nonnull align 8 dereferenceable(312) initializes((136, 137)) %0, ptr noundef nonnull readonly align 8 captures(none) dereferenceable(640) %1) unnamed_addr #4 align 2 {
  %3 = getelementptr inbounds nuw i8, ptr %1, i64 89
  %4 = load i8, ptr %3, align 1, !tbaa !121, !range !119, !noundef !120
  %5 = getelementptr inbounds nuw i8, ptr %0, i64 136
  store i8 %4, ptr %5, align 8, !tbaa !167
  %6 = getelementptr inbounds nuw i8, ptr %1, i64 88
  %7 = load i8, ptr %6, align 8, !tbaa !146, !range !119, !noundef !120
  %8 = trunc nuw i8 %7 to i1
  br i1 %8, label %9, label %10

9:                                                ; preds = %2
  tail call void (ptr, ptr, ...) @_ZN2cv8tinyxml210XMLPrinter5PrintEPKcz(ptr noundef nonnull align 8 dereferenceable(312) %0, ptr noundef nonnull @.str.20, ptr noundef nonnull @_ZZN2cv8tinyxml210XMLPrinter10PushHeaderEbbE3bom)
  br label %10

10:                                               ; preds = %9, %2
  ret i1 true
}